
flanger.elf:     file format elf32-avr

Sections:
Idx Name          Size      VMA       LMA       File off  Algn
  0 .text         000013fa  00000000  00000000  00000094  2**1
                  CONTENTS, ALLOC, LOAD, READONLY, CODE
  1 .data         00000002  00802000  000013fa  0000148e  2**0
                  CONTENTS, ALLOC, LOAD, DATA
  2 .bss          000007da  00802002  00802002  00001490  2**0
                  ALLOC
  3 .stab         000006cc  00000000  00000000  00001490  2**2
                  CONTENTS, READONLY, DEBUGGING
  4 .stabstr      00000054  00000000  00000000  00001b5c  2**0
                  CONTENTS, READONLY, DEBUGGING
  5 .comment      00000011  00000000  00000000  00001bb0  2**0
                  CONTENTS, READONLY

Disassembly of section .text:

00000000 <__vectors>:
       0:	0c 94 bc 08 	jmp	0x1178	; 0x1178 <__ctors_end>
       4:	0c 94 d9 08 	jmp	0x11b2	; 0x11b2 <__bad_interrupt>
       8:	0c 94 d9 08 	jmp	0x11b2	; 0x11b2 <__bad_interrupt>
       c:	0c 94 d9 08 	jmp	0x11b2	; 0x11b2 <__bad_interrupt>
      10:	0c 94 d9 08 	jmp	0x11b2	; 0x11b2 <__bad_interrupt>
      14:	0c 94 d9 08 	jmp	0x11b2	; 0x11b2 <__bad_interrupt>
      18:	0c 94 d9 08 	jmp	0x11b2	; 0x11b2 <__bad_interrupt>
      1c:	0c 94 d9 08 	jmp	0x11b2	; 0x11b2 <__bad_interrupt>
      20:	0c 94 d9 08 	jmp	0x11b2	; 0x11b2 <__bad_interrupt>
      24:	0c 94 d9 08 	jmp	0x11b2	; 0x11b2 <__bad_interrupt>
      28:	0c 94 d9 08 	jmp	0x11b2	; 0x11b2 <__bad_interrupt>
      2c:	0c 94 d9 08 	jmp	0x11b2	; 0x11b2 <__bad_interrupt>
      30:	0c 94 d9 08 	jmp	0x11b2	; 0x11b2 <__bad_interrupt>
      34:	0c 94 d9 08 	jmp	0x11b2	; 0x11b2 <__bad_interrupt>
      38:	0c 94 d9 08 	jmp	0x11b2	; 0x11b2 <__bad_interrupt>
      3c:	0c 94 d9 08 	jmp	0x11b2	; 0x11b2 <__bad_interrupt>
      40:	0c 94 d9 08 	jmp	0x11b2	; 0x11b2 <__bad_interrupt>
      44:	0c 94 d9 08 	jmp	0x11b2	; 0x11b2 <__bad_interrupt>
      48:	0c 94 d9 08 	jmp	0x11b2	; 0x11b2 <__bad_interrupt>
      4c:	0c 94 d9 08 	jmp	0x11b2	; 0x11b2 <__bad_interrupt>
      50:	0c 94 d9 08 	jmp	0x11b2	; 0x11b2 <__bad_interrupt>
      54:	0c 94 d9 08 	jmp	0x11b2	; 0x11b2 <__bad_interrupt>
      58:	0c 94 d9 08 	jmp	0x11b2	; 0x11b2 <__bad_interrupt>
      5c:	0c 94 d9 08 	jmp	0x11b2	; 0x11b2 <__bad_interrupt>
      60:	0c 94 d9 08 	jmp	0x11b2	; 0x11b2 <__bad_interrupt>
      64:	0c 94 d9 08 	jmp	0x11b2	; 0x11b2 <__bad_interrupt>
      68:	0c 94 d9 08 	jmp	0x11b2	; 0x11b2 <__bad_interrupt>
      6c:	0c 94 d9 08 	jmp	0x11b2	; 0x11b2 <__bad_interrupt>
      70:	0c 94 d9 08 	jmp	0x11b2	; 0x11b2 <__bad_interrupt>
      74:	0c 94 d9 08 	jmp	0x11b2	; 0x11b2 <__bad_interrupt>
      78:	0c 94 d9 08 	jmp	0x11b2	; 0x11b2 <__bad_interrupt>
      7c:	0c 94 d9 08 	jmp	0x11b2	; 0x11b2 <__bad_interrupt>
      80:	0c 94 d9 08 	jmp	0x11b2	; 0x11b2 <__bad_interrupt>
      84:	0c 94 d9 08 	jmp	0x11b2	; 0x11b2 <__bad_interrupt>
      88:	0c 94 d9 08 	jmp	0x11b2	; 0x11b2 <__bad_interrupt>
      8c:	0c 94 d9 08 	jmp	0x11b2	; 0x11b2 <__bad_interrupt>
      90:	0c 94 d9 08 	jmp	0x11b2	; 0x11b2 <__bad_interrupt>
      94:	0c 94 d9 08 	jmp	0x11b2	; 0x11b2 <__bad_interrupt>
      98:	0c 94 d9 08 	jmp	0x11b2	; 0x11b2 <__bad_interrupt>
      9c:	0c 94 d9 08 	jmp	0x11b2	; 0x11b2 <__bad_interrupt>
      a0:	0c 94 d9 08 	jmp	0x11b2	; 0x11b2 <__bad_interrupt>
      a4:	0c 94 d9 08 	jmp	0x11b2	; 0x11b2 <__bad_interrupt>
      a8:	0c 94 d9 08 	jmp	0x11b2	; 0x11b2 <__bad_interrupt>
      ac:	0c 94 d9 08 	jmp	0x11b2	; 0x11b2 <__bad_interrupt>
      b0:	0c 94 d9 08 	jmp	0x11b2	; 0x11b2 <__bad_interrupt>
      b4:	0c 94 d9 08 	jmp	0x11b2	; 0x11b2 <__bad_interrupt>
      b8:	0c 94 d9 08 	jmp	0x11b2	; 0x11b2 <__bad_interrupt>
      bc:	0c 94 d9 08 	jmp	0x11b2	; 0x11b2 <__bad_interrupt>
      c0:	0c 94 d9 08 	jmp	0x11b2	; 0x11b2 <__bad_interrupt>
      c4:	0c 94 d9 08 	jmp	0x11b2	; 0x11b2 <__bad_interrupt>
      c8:	0c 94 d9 08 	jmp	0x11b2	; 0x11b2 <__bad_interrupt>
      cc:	0c 94 d9 08 	jmp	0x11b2	; 0x11b2 <__bad_interrupt>
      d0:	0c 94 d9 08 	jmp	0x11b2	; 0x11b2 <__bad_interrupt>
      d4:	0c 94 d9 08 	jmp	0x11b2	; 0x11b2 <__bad_interrupt>
      d8:	0c 94 d9 08 	jmp	0x11b2	; 0x11b2 <__bad_interrupt>
      dc:	0c 94 d9 08 	jmp	0x11b2	; 0x11b2 <__bad_interrupt>
      e0:	0c 94 d9 08 	jmp	0x11b2	; 0x11b2 <__bad_interrupt>
      e4:	0c 94 d9 08 	jmp	0x11b2	; 0x11b2 <__bad_interrupt>
      e8:	0c 94 d9 08 	jmp	0x11b2	; 0x11b2 <__bad_interrupt>
      ec:	0c 94 d9 08 	jmp	0x11b2	; 0x11b2 <__bad_interrupt>
      f0:	0c 94 d9 08 	jmp	0x11b2	; 0x11b2 <__bad_interrupt>
      f4:	0c 94 d9 08 	jmp	0x11b2	; 0x11b2 <__bad_interrupt>
      f8:	0c 94 d9 08 	jmp	0x11b2	; 0x11b2 <__bad_interrupt>
      fc:	0c 94 d9 08 	jmp	0x11b2	; 0x11b2 <__bad_interrupt>
     100:	0c 94 d9 08 	jmp	0x11b2	; 0x11b2 <__bad_interrupt>
     104:	0c 94 d9 08 	jmp	0x11b2	; 0x11b2 <__bad_interrupt>
     108:	0c 94 d9 08 	jmp	0x11b2	; 0x11b2 <__bad_interrupt>
     10c:	0c 94 d9 08 	jmp	0x11b2	; 0x11b2 <__bad_interrupt>
     110:	0c 94 d9 08 	jmp	0x11b2	; 0x11b2 <__bad_interrupt>
     114:	0c 94 d9 08 	jmp	0x11b2	; 0x11b2 <__bad_interrupt>
     118:	0c 94 d9 08 	jmp	0x11b2	; 0x11b2 <__bad_interrupt>
     11c:	0c 94 d9 08 	jmp	0x11b2	; 0x11b2 <__bad_interrupt>
     120:	0c 94 d9 08 	jmp	0x11b2	; 0x11b2 <__bad_interrupt>
     124:	0c 94 d9 08 	jmp	0x11b2	; 0x11b2 <__bad_interrupt>
     128:	0c 94 d9 08 	jmp	0x11b2	; 0x11b2 <__bad_interrupt>
     12c:	0c 94 d9 08 	jmp	0x11b2	; 0x11b2 <__bad_interrupt>
     130:	0c 94 d9 08 	jmp	0x11b2	; 0x11b2 <__bad_interrupt>
     134:	0c 94 d9 08 	jmp	0x11b2	; 0x11b2 <__bad_interrupt>
     138:	0c 94 d9 08 	jmp	0x11b2	; 0x11b2 <__bad_interrupt>
     13c:	0c 94 d9 08 	jmp	0x11b2	; 0x11b2 <__bad_interrupt>
     140:	0c 94 d9 08 	jmp	0x11b2	; 0x11b2 <__bad_interrupt>
     144:	0c 94 d9 08 	jmp	0x11b2	; 0x11b2 <__bad_interrupt>
     148:	0c 94 d9 08 	jmp	0x11b2	; 0x11b2 <__bad_interrupt>
     14c:	0c 94 d9 08 	jmp	0x11b2	; 0x11b2 <__bad_interrupt>
     150:	0c 94 d9 08 	jmp	0x11b2	; 0x11b2 <__bad_interrupt>
     154:	0c 94 d9 08 	jmp	0x11b2	; 0x11b2 <__bad_interrupt>
     158:	0c 94 d9 08 	jmp	0x11b2	; 0x11b2 <__bad_interrupt>
     15c:	0c 94 d9 08 	jmp	0x11b2	; 0x11b2 <__bad_interrupt>
     160:	0c 94 d9 08 	jmp	0x11b2	; 0x11b2 <__bad_interrupt>
     164:	0c 94 d9 08 	jmp	0x11b2	; 0x11b2 <__bad_interrupt>
     168:	0c 94 d9 08 	jmp	0x11b2	; 0x11b2 <__bad_interrupt>
     16c:	0c 94 d9 08 	jmp	0x11b2	; 0x11b2 <__bad_interrupt>
     170:	0c 94 d9 08 	jmp	0x11b2	; 0x11b2 <__bad_interrupt>
     174:	0c 94 d9 08 	jmp	0x11b2	; 0x11b2 <__bad_interrupt>

00000178 <sine>:
     178:	7d 00 7d 00 7e 00 7e 00 7f 00 7f 00 7f 00 80 00     }.}.~.~.........
     188:	80 00 80 00 81 00 81 00 82 00 82 00 82 00 83 00     ................
     198:	83 00 84 00 84 00 84 00 85 00 85 00 85 00 86 00     ................
     1a8:	86 00 87 00 87 00 87 00 88 00 88 00 88 00 89 00     ................
     1b8:	89 00 8a 00 8a 00 8a 00 8b 00 8b 00 8c 00 8c 00     ................
     1c8:	8c 00 8d 00 8d 00 8d 00 8e 00 8e 00 8f 00 8f 00     ................
     1d8:	8f 00 90 00 90 00 90 00 91 00 91 00 92 00 92 00     ................
     1e8:	92 00 93 00 93 00 94 00 94 00 94 00 95 00 95 00     ................
     1f8:	95 00 96 00 96 00 97 00 97 00 97 00 98 00 98 00     ................
     208:	98 00 99 00 99 00 9a 00 9a 00 9a 00 9b 00 9b 00     ................
     218:	9b 00 9c 00 9c 00 9c 00 9d 00 9d 00 9e 00 9e 00     ................
     228:	9e 00 9f 00 9f 00 9f 00 a0 00 a0 00 a1 00 a1 00     ................
     238:	a1 00 a2 00 a2 00 a2 00 a3 00 a3 00 a3 00 a4 00     ................
     248:	a4 00 a5 00 a5 00 a5 00 a6 00 a6 00 a6 00 a7 00     ................
     258:	a7 00 a7 00 a8 00 a8 00 a9 00 a9 00 a9 00 aa 00     ................
     268:	aa 00 aa 00 ab 00 ab 00 ab 00 ac 00 ac 00 ac 00     ................
     278:	ad 00 ad 00 ae 00 ae 00 ae 00 af 00 af 00 af 00     ................
     288:	b0 00 b0 00 b0 00 b1 00 b1 00 b1 00 b2 00 b2 00     ................
     298:	b2 00 b3 00 b3 00 b3 00 b4 00 b4 00 b5 00 b5 00     ................
     2a8:	b5 00 b6 00 b6 00 b6 00 b7 00 b7 00 b7 00 b8 00     ................
     2b8:	b8 00 b8 00 b9 00 b9 00 b9 00 ba 00 ba 00 ba 00     ................
     2c8:	bb 00 bb 00 bb 00 bc 00 bc 00 bc 00 bd 00 bd 00     ................
     2d8:	bd 00 be 00 be 00 be 00 bf 00 bf 00 bf 00 c0 00     ................
     2e8:	c0 00 c0 00 c1 00 c1 00 c1 00 c1 00 c2 00 c2 00     ................
     2f8:	c2 00 c3 00 c3 00 c3 00 c4 00 c4 00 c4 00 c5 00     ................
     308:	c5 00 c5 00 c6 00 c6 00 c6 00 c7 00 c7 00 c7 00     ................
     318:	c7 00 c8 00 c8 00 c8 00 c9 00 c9 00 c9 00 ca 00     ................
     328:	ca 00 ca 00 cb 00 cb 00 cb 00 cb 00 cc 00 cc 00     ................
     338:	cc 00 cd 00 cd 00 cd 00 cd 00 ce 00 ce 00 ce 00     ................
     348:	cf 00 cf 00 cf 00 d0 00 d0 00 d0 00 d0 00 d1 00     ................
     358:	d1 00 d1 00 d2 00 d2 00 d2 00 d2 00 d3 00 d3 00     ................
     368:	d3 00 d3 00 d4 00 d4 00 d4 00 d5 00 d5 00 d5 00     ................
     378:	d5 00 d6 00 d6 00 d6 00 d6 00 d7 00 d7 00 d7 00     ................
     388:	d8 00 d8 00 d8 00 d8 00 d9 00 d9 00 d9 00 d9 00     ................
     398:	da 00 da 00 da 00 da 00 db 00 db 00 db 00 db 00     ................
     3a8:	dc 00 dc 00 dc 00 dc 00 dd 00 dd 00 dd 00 dd 00     ................
     3b8:	de 00 de 00 de 00 de 00 df 00 df 00 df 00 df 00     ................
     3c8:	e0 00 e0 00 e0 00 e0 00 e0 00 e1 00 e1 00 e1 00     ................
     3d8:	e1 00 e2 00 e2 00 e2 00 e2 00 e3 00 e3 00 e3 00     ................
     3e8:	e3 00 e3 00 e4 00 e4 00 e4 00 e4 00 e5 00 e5 00     ................
     3f8:	e5 00 e5 00 e5 00 e6 00 e6 00 e6 00 e6 00 e6 00     ................
     408:	e7 00 e7 00 e7 00 e7 00 e7 00 e8 00 e8 00 e8 00     ................
     418:	e8 00 e8 00 e9 00 e9 00 e9 00 e9 00 e9 00 ea 00     ................
     428:	ea 00 ea 00 ea 00 ea 00 eb 00 eb 00 eb 00 eb 00     ................
     438:	eb 00 eb 00 ec 00 ec 00 ec 00 ec 00 ec 00 ec 00     ................
     448:	ed 00 ed 00 ed 00 ed 00 ed 00 ee 00 ee 00 ee 00     ................
     458:	ee 00 ee 00 ee 00 ee 00 ef 00 ef 00 ef 00 ef 00     ................
     468:	ef 00 ef 00 f0 00 f0 00 f0 00 f0 00 f0 00 f0 00     ................
     478:	f0 00 f1 00 f1 00 f1 00 f1 00 f1 00 f1 00 f1 00     ................
     488:	f2 00 f2 00 f2 00 f2 00 f2 00 f2 00 f2 00 f3 00     ................
     498:	f3 00 f3 00 f3 00 f3 00 f3 00 f3 00 f3 00 f4 00     ................
     4a8:	f4 00 f4 00 f4 00 f4 00 f4 00 f4 00 f4 00 f5 00     ................
     4b8:	f5 00 f5 00 f5 00 f5 00 f5 00 f5 00 f5 00 f5 00     ................
     4c8:	f5 00 f6 00 f6 00 f6 00 f6 00 f6 00 f6 00 f6 00     ................
     4d8:	f6 00 f6 00 f6 00 f7 00 f7 00 f7 00 f7 00 f7 00     ................
     4e8:	f7 00 f7 00 f7 00 f7 00 f7 00 f7 00 f7 00 f8 00     ................
     4f8:	f8 00 f8 00 f8 00 f8 00 f8 00 f8 00 f8 00 f8 00     ................
     508:	f8 00 f8 00 f8 00 f8 00 f8 00 f8 00 f9 00 f9 00     ................
     518:	f9 00 f9 00 f9 00 f9 00 f9 00 f9 00 f9 00 f9 00     ................
     528:	f9 00 f9 00 f9 00 f9 00 f9 00 f9 00 f9 00 f9 00     ................
     538:	f9 00 f9 00 f9 00 fa 00 fa 00 fa 00 fa 00 fa 00     ................
     548:	fa 00 fa 00 fa 00 fa 00 fa 00 fa 00 fa 00 fa 00     ................
     558:	fa 00 fa 00 fa 00 fa 00 fa 00 fa 00 fa 00 fa 00     ................
     568:	fa 00 fa 00 fa 00 fa 00 fa 00 fa 00 fa 00 fa 00     ................
     578:	fa 00 fa 00 fa 00 fa 00 fa 00 fa 00 fa 00 fa 00     ................
     588:	fa 00 fa 00 fa 00 fa 00 fa 00 fa 00 fa 00 fa 00     ................
     598:	fa 00 fa 00 fa 00 fa 00 fa 00 fa 00 fa 00 fa 00     ................
     5a8:	fa 00 fa 00 fa 00 fa 00 fa 00 fa 00 f9 00 f9 00     ................
     5b8:	f9 00 f9 00 f9 00 f9 00 f9 00 f9 00 f9 00 f9 00     ................
     5c8:	f9 00 f9 00 f9 00 f9 00 f9 00 f9 00 f9 00 f9 00     ................
     5d8:	f9 00 f9 00 f9 00 f8 00 f8 00 f8 00 f8 00 f8 00     ................
     5e8:	f8 00 f8 00 f8 00 f8 00 f8 00 f8 00 f8 00 f8 00     ................
     5f8:	f8 00 f8 00 f7 00 f7 00 f7 00 f7 00 f7 00 f7 00     ................
     608:	f7 00 f7 00 f7 00 f7 00 f7 00 f7 00 f6 00 f6 00     ................
     618:	f6 00 f6 00 f6 00 f6 00 f6 00 f6 00 f6 00 f6 00     ................
     628:	f5 00 f5 00 f5 00 f5 00 f5 00 f5 00 f5 00 f5 00     ................
     638:	f5 00 f5 00 f4 00 f4 00 f4 00 f4 00 f4 00 f4 00     ................
     648:	f4 00 f4 00 f3 00 f3 00 f3 00 f3 00 f3 00 f3 00     ................
     658:	f3 00 f3 00 f2 00 f2 00 f2 00 f2 00 f2 00 f2 00     ................
     668:	f2 00 f1 00 f1 00 f1 00 f1 00 f1 00 f1 00 f1 00     ................
     678:	f0 00 f0 00 f0 00 f0 00 f0 00 f0 00 f0 00 ef 00     ................
     688:	ef 00 ef 00 ef 00 ef 00 ef 00 ee 00 ee 00 ee 00     ................
     698:	ee 00 ee 00 ee 00 ee 00 ed 00 ed 00 ed 00 ed 00     ................
     6a8:	ed 00 ec 00 ec 00 ec 00 ec 00 ec 00 ec 00 eb 00     ................
     6b8:	eb 00 eb 00 eb 00 eb 00 eb 00 ea 00 ea 00 ea 00     ................
     6c8:	ea 00 ea 00 e9 00 e9 00 e9 00 e9 00 e9 00 e8 00     ................
     6d8:	e8 00 e8 00 e8 00 e8 00 e7 00 e7 00 e7 00 e7 00     ................
     6e8:	e7 00 e6 00 e6 00 e6 00 e6 00 e6 00 e5 00 e5 00     ................
     6f8:	e5 00 e5 00 e5 00 e4 00 e4 00 e4 00 e4 00 e3 00     ................
     708:	e3 00 e3 00 e3 00 e3 00 e2 00 e2 00 e2 00 e2 00     ................
     718:	e1 00 e1 00 e1 00 e1 00 e0 00 e0 00 e0 00 e0 00     ................
     728:	e0 00 df 00 df 00 df 00 df 00 de 00 de 00 de 00     ................
     738:	de 00 dd 00 dd 00 dd 00 dd 00 dc 00 dc 00 dc 00     ................
     748:	dc 00 db 00 db 00 db 00 db 00 da 00 da 00 da 00     ................
     758:	da 00 d9 00 d9 00 d9 00 d9 00 d8 00 d8 00 d8 00     ................
     768:	d8 00 d7 00 d7 00 d7 00 d6 00 d6 00 d6 00 d6 00     ................
     778:	d5 00 d5 00 d5 00 d5 00 d4 00 d4 00 d4 00 d3 00     ................
     788:	d3 00 d3 00 d3 00 d2 00 d2 00 d2 00 d2 00 d1 00     ................
     798:	d1 00 d1 00 d0 00 d0 00 d0 00 d0 00 cf 00 cf 00     ................
     7a8:	cf 00 ce 00 ce 00 ce 00 cd 00 cd 00 cd 00 cd 00     ................
     7b8:	cc 00 cc 00 cc 00 cb 00 cb 00 cb 00 cb 00 ca 00     ................
     7c8:	ca 00 ca 00 c9 00 c9 00 c9 00 c8 00 c8 00 c8 00     ................
     7d8:	c7 00 c7 00 c7 00 c7 00 c6 00 c6 00 c6 00 c5 00     ................
     7e8:	c5 00 c5 00 c4 00 c4 00 c4 00 c3 00 c3 00 c3 00     ................
     7f8:	c2 00 c2 00 c2 00 c1 00 c1 00 c1 00 c1 00 c0 00     ................
     808:	c0 00 c0 00 bf 00 bf 00 bf 00 be 00 be 00 be 00     ................
     818:	bd 00 bd 00 bd 00 bc 00 bc 00 bc 00 bb 00 bb 00     ................
     828:	bb 00 ba 00 ba 00 ba 00 b9 00 b9 00 b9 00 b8 00     ................
     838:	b8 00 b8 00 b7 00 b7 00 b7 00 b6 00 b6 00 b6 00     ................
     848:	b5 00 b5 00 b5 00 b4 00 b4 00 b3 00 b3 00 b3 00     ................
     858:	b2 00 b2 00 b2 00 b1 00 b1 00 b1 00 b0 00 b0 00     ................
     868:	b0 00 af 00 af 00 af 00 ae 00 ae 00 ae 00 ad 00     ................
     878:	ad 00 ac 00 ac 00 ac 00 ab 00 ab 00 ab 00 aa 00     ................
     888:	aa 00 aa 00 a9 00 a9 00 a9 00 a8 00 a8 00 a7 00     ................
     898:	a7 00 a7 00 a6 00 a6 00 a6 00 a5 00 a5 00 a5 00     ................
     8a8:	a4 00 a4 00 a3 00 a3 00 a3 00 a2 00 a2 00 a2 00     ................
     8b8:	a1 00 a1 00 a1 00 a0 00 a0 00 9f 00 9f 00 9f 00     ................
     8c8:	9e 00 9e 00 9e 00 9d 00 9d 00 9c 00 9c 00 9c 00     ................
     8d8:	9b 00 9b 00 9b 00 9a 00 9a 00 9a 00 99 00 99 00     ................
     8e8:	98 00 98 00 98 00 97 00 97 00 97 00 96 00 96 00     ................
     8f8:	95 00 95 00 95 00 94 00 94 00 94 00 93 00 93 00     ................
     908:	92 00 92 00 92 00 91 00 91 00 90 00 90 00 90 00     ................
     918:	8f 00 8f 00 8f 00 8e 00 8e 00 8d 00 8d 00 8d 00     ................
     928:	8c 00 8c 00 8c 00 8b 00 8b 00 8a 00 8a 00 8a 00     ................
     938:	89 00 89 00 88 00 88 00 88 00 87 00 87 00 87 00     ................
     948:	86 00 86 00 85 00 85 00 85 00 84 00 84 00 84 00     ................
     958:	83 00 83 00 82 00 82 00 82 00 81 00 81 00 80 00     ................
     968:	80 00 80 00 7f 00 7f 00 7f 00 7e 00 7e 00 7d 00     ..........~.~.}.
     978:	7d 00 7d 00 7c 00 7c 00 7b 00 7b 00 7b 00 7a 00     }.}.|.|.{.{.{.z.
     988:	7a 00 7a 00 79 00 79 00 78 00 78 00 78 00 77 00     z.z.y.y.x.x.x.w.
     998:	77 00 76 00 76 00 76 00 75 00 75 00 75 00 74 00     w.v.v.v.u.u.u.t.
     9a8:	74 00 73 00 73 00 73 00 72 00 72 00 72 00 71 00     t.s.s.s.r.r.r.q.
     9b8:	71 00 70 00 70 00 70 00 6f 00 6f 00 6e 00 6e 00     q.p.p.p.o.o.n.n.
     9c8:	6e 00 6d 00 6d 00 6d 00 6c 00 6c 00 6b 00 6b 00     n.m.m.m.l.l.k.k.
     9d8:	6b 00 6a 00 6a 00 6a 00 69 00 69 00 68 00 68 00     k.j.j.j.i.i.h.h.
     9e8:	68 00 67 00 67 00 66 00 66 00 66 00 65 00 65 00     h.g.g.f.f.f.e.e.
     9f8:	65 00 64 00 64 00 63 00 63 00 63 00 62 00 62 00     e.d.d.c.c.c.b.b.
     a08:	62 00 61 00 61 00 60 00 60 00 60 00 5f 00 5f 00     b.a.a.`.`.`._._.
     a18:	5f 00 5e 00 5e 00 5e 00 5d 00 5d 00 5c 00 5c 00     _.^.^.^.].].\.\.
     a28:	5c 00 5b 00 5b 00 5b 00 5a 00 5a 00 59 00 59 00     \.[.[.[.Z.Z.Y.Y.
     a38:	59 00 58 00 58 00 58 00 57 00 57 00 57 00 56 00     Y.X.X.X.W.W.W.V.
     a48:	56 00 55 00 55 00 55 00 54 00 54 00 54 00 53 00     V.U.U.U.T.T.T.S.
     a58:	53 00 53 00 52 00 52 00 51 00 51 00 51 00 50 00     S.S.R.R.Q.Q.Q.P.
     a68:	50 00 50 00 4f 00 4f 00 4f 00 4e 00 4e 00 4e 00     P.P.O.O.O.N.N.N.
     a78:	4d 00 4d 00 4c 00 4c 00 4c 00 4b 00 4b 00 4b 00     M.M.L.L.L.K.K.K.
     a88:	4a 00 4a 00 4a 00 49 00 49 00 49 00 48 00 48 00     J.J.J.I.I.I.H.H.
     a98:	48 00 47 00 47 00 47 00 46 00 46 00 45 00 45 00     H.G.G.G.F.F.E.E.
     aa8:	45 00 44 00 44 00 44 00 43 00 43 00 43 00 42 00     E.D.D.D.C.C.C.B.
     ab8:	42 00 42 00 41 00 41 00 41 00 40 00 40 00 40 00     B.B.A.A.A.@.@.@.
     ac8:	3f 00 3f 00 3f 00 3e 00 3e 00 3e 00 3d 00 3d 00     ?.?.?.>.>.>.=.=.
     ad8:	3d 00 3c 00 3c 00 3c 00 3b 00 3b 00 3b 00 3a 00     =.<.<.<.;.;.;.:.
     ae8:	3a 00 3a 00 39 00 39 00 39 00 39 00 38 00 38 00     :.:.9.9.9.9.8.8.
     af8:	38 00 37 00 37 00 37 00 36 00 36 00 36 00 35 00     8.7.7.7.6.6.6.5.
     b08:	35 00 35 00 34 00 34 00 34 00 33 00 33 00 33 00     5.5.4.4.4.3.3.3.
     b18:	33 00 32 00 32 00 32 00 31 00 31 00 31 00 30 00     3.2.2.2.1.1.1.0.
     b28:	30 00 30 00 2f 00 2f 00 2f 00 2f 00 2e 00 2e 00     0.0././././.....
     b38:	2e 00 2d 00 2d 00 2d 00 2d 00 2c 00 2c 00 2c 00     ..-.-.-.-.,.,.,.
     b48:	2b 00 2b 00 2b 00 2a 00 2a 00 2a 00 2a 00 29 00     +.+.+.*.*.*.*.).
     b58:	29 00 29 00 28 00 28 00 28 00 28 00 27 00 27 00     ).).(.(.(.(.'.'.
     b68:	27 00 27 00 26 00 26 00 26 00 25 00 25 00 25 00     '.'.&.&.&.%.%.%.
     b78:	25 00 24 00 24 00 24 00 24 00 23 00 23 00 23 00     %.$.$.$.$.#.#.#.
     b88:	22 00 22 00 22 00 22 00 21 00 21 00 21 00 21 00     ".".".".!.!.!.!.
     b98:	20 00 20 00 20 00 20 00 1f 00 1f 00 1f 00 1f 00      . . . .........
     ba8:	1e 00 1e 00 1e 00 1e 00 1d 00 1d 00 1d 00 1d 00     ................
     bb8:	1c 00 1c 00 1c 00 1c 00 1b 00 1b 00 1b 00 1b 00     ................
     bc8:	1a 00 1a 00 1a 00 1a 00 1a 00 19 00 19 00 19 00     ................
     bd8:	19 00 18 00 18 00 18 00 18 00 17 00 17 00 17 00     ................
     be8:	17 00 17 00 16 00 16 00 16 00 16 00 15 00 15 00     ................
     bf8:	15 00 15 00 15 00 14 00 14 00 14 00 14 00 14 00     ................
     c08:	13 00 13 00 13 00 13 00 13 00 12 00 12 00 12 00     ................
     c18:	12 00 12 00 11 00 11 00 11 00 11 00 11 00 10 00     ................
     c28:	10 00 10 00 10 00 10 00 0f 00 0f 00 0f 00 0f 00     ................
     c38:	0f 00 0f 00 0e 00 0e 00 0e 00 0e 00 0e 00 0e 00     ................
     c48:	0d 00 0d 00 0d 00 0d 00 0d 00 0c 00 0c 00 0c 00     ................
     c58:	0c 00 0c 00 0c 00 0c 00 0b 00 0b 00 0b 00 0b 00     ................
     c68:	0b 00 0b 00 0a 00 0a 00 0a 00 0a 00 0a 00 0a 00     ................
     c78:	0a 00 09 00 09 00 09 00 09 00 09 00 09 00 09 00     ................
     c88:	08 00 08 00 08 00 08 00 08 00 08 00 08 00 07 00     ................
     c98:	07 00 07 00 07 00 07 00 07 00 07 00 07 00 06 00     ................
     ca8:	06 00 06 00 06 00 06 00 06 00 06 00 06 00 05 00     ................
     cb8:	05 00 05 00 05 00 05 00 05 00 05 00 05 00 05 00     ................
     cc8:	05 00 04 00 04 00 04 00 04 00 04 00 04 00 04 00     ................
     cd8:	04 00 04 00 04 00 03 00 03 00 03 00 03 00 03 00     ................
     ce8:	03 00 03 00 03 00 03 00 03 00 03 00 03 00 02 00     ................
     cf8:	02 00 02 00 02 00 02 00 02 00 02 00 02 00 02 00     ................
     d08:	02 00 02 00 02 00 02 00 02 00 02 00 01 00 01 00     ................
     d18:	01 00 01 00 01 00 01 00 01 00 01 00 01 00 01 00     ................
     d28:	01 00 01 00 01 00 01 00 01 00 01 00 01 00 01 00     ................
     d38:	01 00 01 00 01 00 00 00 00 00 00 00 00 00 00 00     ................
	...
     db4:	01 00 01 00 01 00 01 00 01 00 01 00 01 00 01 00     ................
     dc4:	01 00 01 00 01 00 01 00 01 00 01 00 01 00 01 00     ................
     dd4:	01 00 01 00 01 00 01 00 01 00 02 00 02 00 02 00     ................
     de4:	02 00 02 00 02 00 02 00 02 00 02 00 02 00 02 00     ................
     df4:	02 00 02 00 02 00 02 00 03 00 03 00 03 00 03 00     ................
     e04:	03 00 03 00 03 00 03 00 03 00 03 00 03 00 03 00     ................
     e14:	04 00 04 00 04 00 04 00 04 00 04 00 04 00 04 00     ................
     e24:	04 00 04 00 05 00 05 00 05 00 05 00 05 00 05 00     ................
     e34:	05 00 05 00 05 00 05 00 06 00 06 00 06 00 06 00     ................
     e44:	06 00 06 00 06 00 06 00 07 00 07 00 07 00 07 00     ................
     e54:	07 00 07 00 07 00 07 00 08 00 08 00 08 00 08 00     ................
     e64:	08 00 08 00 08 00 09 00 09 00 09 00 09 00 09 00     ................
     e74:	09 00 09 00 0a 00 0a 00 0a 00 0a 00 0a 00 0a 00     ................
     e84:	0a 00 0b 00 0b 00 0b 00 0b 00 0b 00 0b 00 0c 00     ................
     e94:	0c 00 0c 00 0c 00 0c 00 0c 00 0c 00 0d 00 0d 00     ................
     ea4:	0d 00 0d 00 0d 00 0e 00 0e 00 0e 00 0e 00 0e 00     ................
     eb4:	0e 00 0f 00 0f 00 0f 00 0f 00 0f 00 0f 00 10 00     ................
     ec4:	10 00 10 00 10 00 10 00 11 00 11 00 11 00 11 00     ................
     ed4:	11 00 12 00 12 00 12 00 12 00 12 00 13 00 13 00     ................
     ee4:	13 00 13 00 13 00 14 00 14 00 14 00 14 00 14 00     ................
     ef4:	15 00 15 00 15 00 15 00 15 00 16 00 16 00 16 00     ................
     f04:	16 00 17 00 17 00 17 00 17 00 17 00 18 00 18 00     ................
     f14:	18 00 18 00 19 00 19 00 19 00 19 00 1a 00 1a 00     ................
     f24:	1a 00 1a 00 1a 00 1b 00 1b 00 1b 00 1b 00 1c 00     ................
     f34:	1c 00 1c 00 1c 00 1d 00 1d 00 1d 00 1d 00 1e 00     ................
     f44:	1e 00 1e 00 1e 00 1f 00 1f 00 1f 00 1f 00 20 00     .............. .
     f54:	20 00 20 00 20 00 21 00 21 00 21 00 21 00 22 00      . . .!.!.!.!.".
     f64:	22 00 22 00 22 00 23 00 23 00 23 00 24 00 24 00     ".".".#.#.#.$.$.
     f74:	24 00 24 00 25 00 25 00 25 00 25 00 26 00 26 00     $.$.%.%.%.%.&.&.
     f84:	26 00 27 00 27 00 27 00 27 00 28 00 28 00 28 00     &.'.'.'.'.(.(.(.
     f94:	28 00 29 00 29 00 29 00 2a 00 2a 00 2a 00 2a 00     (.).).).*.*.*.*.
     fa4:	2b 00 2b 00 2b 00 2c 00 2c 00 2c 00 2d 00 2d 00     +.+.+.,.,.,.-.-.
     fb4:	2d 00 2d 00 2e 00 2e 00 2e 00 2f 00 2f 00 2f 00     -.-......./././.
     fc4:	2f 00 30 00 30 00 30 00 31 00 31 00 31 00 32 00     /.0.0.0.1.1.1.2.
     fd4:	32 00 32 00 33 00 33 00 33 00 33 00 34 00 34 00     2.2.3.3.3.3.4.4.
     fe4:	34 00 35 00 35 00 35 00 36 00 36 00 36 00 37 00     4.5.5.5.6.6.6.7.
     ff4:	37 00 37 00 38 00 38 00 38 00 39 00 39 00 39 00     7.7.8.8.8.9.9.9.
    1004:	39 00 3a 00 3a 00 3a 00 3b 00 3b 00 3b 00 3c 00     9.:.:.:.;.;.;.<.
    1014:	3c 00 3c 00 3d 00 3d 00 3d 00 3e 00 3e 00 3e 00     <.<.=.=.=.>.>.>.
    1024:	3f 00 3f 00 3f 00 40 00 40 00 40 00 41 00 41 00     ?.?.?.@.@.@.A.A.
    1034:	41 00 42 00 42 00 42 00 43 00 43 00 43 00 44 00     A.B.B.B.C.C.C.D.
    1044:	44 00 44 00 45 00 45 00 45 00 46 00 46 00 47 00     D.D.E.E.E.F.F.G.
    1054:	47 00 47 00 48 00 48 00 48 00 49 00 49 00 49 00     G.G.H.H.H.I.I.I.
    1064:	4a 00 4a 00 4a 00 4b 00 4b 00 4b 00 4c 00 4c 00     J.J.J.K.K.K.L.L.
    1074:	4c 00 4d 00 4d 00 4e 00 4e 00 4e 00 4f 00 4f 00     L.M.M.N.N.N.O.O.
    1084:	4f 00 50 00 50 00 50 00 51 00 51 00 51 00 52 00     O.P.P.P.Q.Q.Q.R.
    1094:	52 00 53 00 53 00 53 00 54 00 54 00 54 00 55 00     R.S.S.S.T.T.T.U.
    10a4:	55 00 55 00 56 00 56 00 57 00 57 00 57 00 58 00     U.U.V.V.W.W.W.X.
    10b4:	58 00 58 00 59 00 59 00 59 00 5a 00 5a 00 5b 00     X.X.Y.Y.Y.Z.Z.[.
    10c4:	5b 00 5b 00 5c 00 5c 00 5c 00 5d 00 5d 00 5e 00     [.[.\.\.\.].].^.
    10d4:	5e 00 5e 00 5f 00 5f 00 5f 00 60 00 60 00 60 00     ^.^._._._.`.`.`.
    10e4:	61 00 61 00 62 00 62 00 62 00 63 00 63 00 63 00     a.a.b.b.b.c.c.c.
    10f4:	64 00 64 00 65 00 65 00 65 00 66 00 66 00 66 00     d.d.e.e.e.f.f.f.
    1104:	67 00 67 00 68 00 68 00 68 00 69 00 69 00 6a 00     g.g.h.h.h.i.i.j.
    1114:	6a 00 6a 00 6b 00 6b 00 6b 00 6c 00 6c 00 6d 00     j.j.k.k.k.l.l.m.
    1124:	6d 00 6d 00 6e 00 6e 00 6e 00 6f 00 6f 00 70 00     m.m.n.n.n.o.o.p.
    1134:	70 00 70 00 71 00 71 00 72 00 72 00 72 00 73 00     p.p.q.q.r.r.r.s.
    1144:	73 00 73 00 74 00 74 00 75 00 75 00 75 00 76 00     s.s.t.t.u.u.u.v.
    1154:	76 00 76 00 77 00 77 00 78 00 78 00 78 00 79 00     v.v.w.w.x.x.x.y.
    1164:	79 00 7a 00 7a 00 7a 00 7b 00 7b 00 7b 00 7c 00     y.z.z.z.{.{.{.|.
    1174:	7c 00 7d 00                                         |.}.

00001178 <__ctors_end>:
    1178:	11 24       	eor	r1, r1
    117a:	1f be       	out	0x3f, r1	; 63
    117c:	cf ef       	ldi	r28, 0xFF	; 255
    117e:	d7 e2       	ldi	r29, 0x27	; 39
    1180:	de bf       	out	0x3e, r29	; 62
    1182:	cd bf       	out	0x3d, r28	; 61

00001184 <__do_copy_data>:
    1184:	10 e2       	ldi	r17, 0x20	; 32
    1186:	a0 e0       	ldi	r26, 0x00	; 0
    1188:	b0 e2       	ldi	r27, 0x20	; 32
    118a:	ea ef       	ldi	r30, 0xFA	; 250
    118c:	f3 e1       	ldi	r31, 0x13	; 19
    118e:	02 c0       	rjmp	.+4      	; 0x1194 <__do_copy_data+0x10>
    1190:	05 90       	lpm	r0, Z+
    1192:	0d 92       	st	X+, r0
    1194:	a2 30       	cpi	r26, 0x02	; 2
    1196:	b1 07       	cpc	r27, r17
    1198:	d9 f7       	brne	.-10     	; 0x1190 <__do_copy_data+0xc>

0000119a <__do_clear_bss>:
    119a:	17 e2       	ldi	r17, 0x27	; 39
    119c:	a2 e0       	ldi	r26, 0x02	; 2
    119e:	b0 e2       	ldi	r27, 0x20	; 32
    11a0:	01 c0       	rjmp	.+2      	; 0x11a4 <.do_clear_bss_start>

000011a2 <.do_clear_bss_loop>:
    11a2:	1d 92       	st	X+, r1

000011a4 <.do_clear_bss_start>:
    11a4:	ac 3d       	cpi	r26, 0xDC	; 220
    11a6:	b1 07       	cpc	r27, r17
    11a8:	e1 f7       	brne	.-8      	; 0x11a2 <.do_clear_bss_loop>
    11aa:	0e 94 81 09 	call	0x1302	; 0x1302 <main>
    11ae:	0c 94 fb 09 	jmp	0x13f6	; 0x13f6 <_exit>

000011b2 <__bad_interrupt>:
    11b2:	0c 94 00 00 	jmp	0	; 0x0 <__vectors>

000011b6 <dac_write.part.0>:
    11b6:	20 91 25 03 	lds	r18, 0x0325
    11ba:	20 ff       	sbrs	r18, 0
    11bc:	fc cf       	rjmp	.-8      	; 0x11b6 <dac_write.part.0>
    11be:	80 93 38 03 	sts	0x0338, r24
    11c2:	90 93 39 03 	sts	0x0339, r25
    11c6:	08 95       	ret

000011c8 <boardinit>:
    11c8:	e0 e4       	ldi	r30, 0x40	; 64
    11ca:	f6 e0       	ldi	r31, 0x06	; 6
    11cc:	80 e8       	ldi	r24, 0x80	; 128
    11ce:	80 83       	st	Z, r24
    11d0:	14 82       	std	Z+4, r1	; 0x04
    11d2:	82 e1       	ldi	r24, 0x12	; 18
    11d4:	81 8b       	std	Z+17, r24	; 0x11
    11d6:	10 8a       	std	Z+16, r1	; 0x10
    11d8:	17 8a       	std	Z+23, r1	; 0x17
    11da:	8c ef       	ldi	r24, 0xFC	; 252
    11dc:	80 93 b0 00 	sts	0x00B0, r24
    11e0:	87 e0       	ldi	r24, 0x07	; 7
    11e2:	82 8b       	std	Z+18, r24	; 0x12
    11e4:	11 86       	std	Z+9, r1	; 0x09
    11e6:	12 86       	std	Z+10, r1	; 0x0a
    11e8:	13 86       	std	Z+11, r1	; 0x0b
    11ea:	e0 e2       	ldi	r30, 0x20	; 32
    11ec:	f6 e0       	ldi	r31, 0x06	; 6
    11ee:	9c e0       	ldi	r25, 0x0C	; 12
    11f0:	90 83       	st	Z, r25
    11f2:	14 82       	std	Z+4, r1	; 0x04
    11f4:	10 8a       	std	Z+16, r1	; 0x10
    11f6:	11 8a       	std	Z+17, r1	; 0x11
    11f8:	80 93 32 06 	sts	0x0632, r24
    11fc:	83 8b       	std	Z+19, r24	; 0x13
    11fe:	11 86       	std	Z+9, r1	; 0x09
    1200:	12 86       	std	Z+10, r1	; 0x0a
    1202:	13 86       	std	Z+11, r1	; 0x0b
    1204:	08 95       	ret

00001206 <adc_init>:
    1206:	80 e1       	ldi	r24, 0x10	; 16
    1208:	80 93 01 02 	sts	0x0201, r24
    120c:	94 e0       	ldi	r25, 0x04	; 4
    120e:	90 93 04 02 	sts	0x0204, r25
    1212:	80 93 02 02 	sts	0x0202, r24
    1216:	81 e0       	ldi	r24, 0x01	; 1
    1218:	80 93 20 02 	sts	0x0220, r24
    121c:	80 93 28 02 	sts	0x0228, r24
    1220:	10 92 18 02 	sts	0x0218, r1
    1224:	10 92 19 02 	sts	0x0219, r1
    1228:	98 e3       	ldi	r25, 0x38	; 56
    122a:	90 93 21 02 	sts	0x0221, r25
    122e:	98 e2       	ldi	r25, 0x28	; 40
    1230:	90 93 29 02 	sts	0x0229, r25
    1234:	80 93 22 02 	sts	0x0222, r24
    1238:	80 93 2a 02 	sts	0x022A, r24
    123c:	10 92 32 02 	sts	0x0232, r1
    1240:	10 92 3a 02 	sts	0x023A, r1
    1244:	e0 ea       	ldi	r30, 0xA0	; 160
    1246:	f0 e0       	ldi	r31, 0x00	; 0
    1248:	82 83       	std	Z+2, r24	; 0x02
    124a:	78 94       	sei
    124c:	e1 e0       	ldi	r30, 0x01	; 1
    124e:	f2 e0       	ldi	r31, 0x02	; 2
    1250:	80 81       	ld	r24, Z
    1252:	88 60       	ori	r24, 0x08	; 8
    1254:	80 83       	st	Z, r24
    1256:	e0 e0       	ldi	r30, 0x00	; 0
    1258:	f2 e0       	ldi	r31, 0x02	; 2
    125a:	80 81       	ld	r24, Z
    125c:	81 60       	ori	r24, 0x01	; 1
    125e:	80 83       	st	Z, r24
    1260:	08 95       	ret

00001262 <clk_init>:
    1262:	10 92 50 00 	sts	0x0050, r1
    1266:	80 91 50 00 	lds	r24, 0x0050
    126a:	84 60       	ori	r24, 0x04	; 4
    126c:	80 93 50 00 	sts	0x0050, r24
    1270:	80 91 51 00 	lds	r24, 0x0051
    1274:	82 ff       	sbrs	r24, 2
    1276:	fc cf       	rjmp	.-8      	; 0x1270 <clk_init+0xe>
    1278:	80 91 50 00 	lds	r24, 0x0050
    127c:	82 60       	ori	r24, 0x02	; 2
    127e:	80 93 50 00 	sts	0x0050, r24
    1282:	88 ed       	ldi	r24, 0xD8	; 216
    1284:	84 bf       	out	0x34, r24	; 52
    1286:	80 91 41 00 	lds	r24, 0x0041
    128a:	80 78       	andi	r24, 0x80	; 128
    128c:	80 93 41 00 	sts	0x0041, r24
    1290:	80 91 56 00 	lds	r24, 0x0056
    1294:	8c 7f       	andi	r24, 0xFC	; 252
    1296:	82 60       	ori	r24, 0x02	; 2
    1298:	80 93 56 00 	sts	0x0056, r24
    129c:	80 91 60 00 	lds	r24, 0x0060
    12a0:	81 60       	ori	r24, 0x01	; 1
    12a2:	80 93 60 00 	sts	0x0060, r24
    12a6:	80 91 51 00 	lds	r24, 0x0051
    12aa:	81 ff       	sbrs	r24, 1
    12ac:	fc cf       	rjmp	.-8      	; 0x12a6 <clk_init+0x44>
    12ae:	88 ed       	ldi	r24, 0xD8	; 216
    12b0:	84 bf       	out	0x34, r24	; 52
    12b2:	80 91 40 00 	lds	r24, 0x0040
    12b6:	88 7f       	andi	r24, 0xF8	; 248
    12b8:	81 60       	ori	r24, 0x01	; 1
    12ba:	80 93 40 00 	sts	0x0040, r24
    12be:	80 91 50 00 	lds	r24, 0x0050
    12c2:	86 7e       	andi	r24, 0xE6	; 230
    12c4:	80 93 50 00 	sts	0x0050, r24
    12c8:	10 92 b4 00 	sts	0x00B4, r1
    12cc:	08 95       	ret

000012ce <dac_init>:
    12ce:	85 e0       	ldi	r24, 0x05	; 5
    12d0:	80 93 20 03 	sts	0x0320, r24
    12d4:	10 92 21 03 	sts	0x0321, r1
    12d8:	88 e0       	ldi	r24, 0x08	; 8
    12da:	80 93 22 03 	sts	0x0322, r24
    12de:	08 95       	ret

000012e0 <dac_write>:
    12e0:	88 23       	and	r24, r24
    12e2:	19 f0       	breq	.+6      	; 0x12ea <dac_write+0xa>
    12e4:	81 30       	cpi	r24, 0x01	; 1
    12e6:	21 f0       	breq	.+8      	; 0x12f0 <dac_write+0x10>
    12e8:	08 95       	ret
    12ea:	cb 01       	movw	r24, r22
    12ec:	0c 94 db 08 	jmp	0x11b6	; 0x11b6 <dac_write.part.0>
    12f0:	80 91 25 03 	lds	r24, 0x0325
    12f4:	81 ff       	sbrs	r24, 1
    12f6:	fc cf       	rjmp	.-8      	; 0x12f0 <dac_write+0x10>
    12f8:	60 93 3a 03 	sts	0x033A, r22
    12fc:	70 93 3b 03 	sts	0x033B, r23
    1300:	08 95       	ret

00001302 <main>:
    1302:	0e 94 e4 08 	call	0x11c8	; 0x11c8 <boardinit>
    1306:	0e 94 31 09 	call	0x1262	; 0x1262 <clk_init>
    130a:	0e 94 03 09 	call	0x1206	; 0x1206 <adc_init>
    130e:	0e 94 67 09 	call	0x12ce	; 0x12ce <dac_init>
    1312:	c1 e0       	ldi	r28, 0x01	; 1
    1314:	d1 e0       	ldi	r29, 0x01	; 1
    1316:	80 91 23 02 	lds	r24, 0x0223
    131a:	80 ff       	sbrs	r24, 0
    131c:	fc cf       	rjmp	.-8      	; 0x1316 <main+0x14>
    131e:	c0 93 23 02 	sts	0x0223, r28
    1322:	80 91 10 02 	lds	r24, 0x0210
    1326:	90 91 11 02 	lds	r25, 0x0211
    132a:	80 93 08 20 	sts	0x2008, r24
    132e:	90 93 09 20 	sts	0x2009, r25
    1332:	20 91 04 20 	lds	r18, 0x2004
    1336:	30 91 05 20 	lds	r19, 0x2005
    133a:	f9 01       	movw	r30, r18
    133c:	ee 0f       	add	r30, r30
    133e:	ff 1f       	adc	r31, r31
    1340:	e6 5f       	subi	r30, 0xF6	; 246
    1342:	ff 4d       	sbci	r31, 0xDF	; 223
    1344:	80 83       	st	Z, r24
    1346:	91 83       	std	Z+1, r25	; 0x01
    1348:	40 91 48 06 	lds	r20, 0x0648
    134c:	41 ff       	sbrs	r20, 1
    134e:	05 c0       	rjmp	.+10     	; 0x135a <main+0x58>
    1350:	40 91 00 20 	lds	r20, 0x2000
    1354:	4f 5f       	subi	r20, 0xFF	; 255
    1356:	40 93 00 20 	sts	0x2000, r20
    135a:	40 91 00 20 	lds	r20, 0x2000
    135e:	4a 30       	cpi	r20, 0x0A	; 10
    1360:	10 f0       	brcs	.+4      	; 0x1366 <main+0x64>
    1362:	d0 93 00 20 	sts	0x2000, r29
    1366:	40 91 02 20 	lds	r20, 0x2002
    136a:	50 91 03 20 	lds	r21, 0x2003
    136e:	e5 2f       	mov	r30, r21
    1370:	ff 27       	eor	r31, r31
    1372:	ee 0f       	add	r30, r30
    1374:	ff 1f       	adc	r31, r31
    1376:	e8 58       	subi	r30, 0x88	; 136
    1378:	fe 4f       	sbci	r31, 0xFE	; 254
    137a:	e4 91       	lpm	r30, Z
    137c:	f0 e0       	ldi	r31, 0x00	; 0
    137e:	e0 93 06 20 	sts	0x2006, r30
    1382:	f0 93 07 20 	sts	0x2007, r31
    1386:	60 91 00 20 	lds	r22, 0x2000
    138a:	46 0f       	add	r20, r22
    138c:	51 1d       	adc	r21, r1
    138e:	40 93 02 20 	sts	0x2002, r20
    1392:	50 93 03 20 	sts	0x2003, r21
    1396:	2e 1b       	sub	r18, r30
    1398:	3f 0b       	sbc	r19, r31
    139a:	29 3e       	cpi	r18, 0xE9	; 233
    139c:	43 e0       	ldi	r20, 0x03	; 3
    139e:	34 07       	cpc	r19, r20
    13a0:	10 f0       	brcs	.+4      	; 0x13a6 <main+0xa4>
    13a2:	28 51       	subi	r18, 0x18	; 24
    13a4:	3c 4f       	sbci	r19, 0xFC	; 252
    13a6:	20 93 da 27 	sts	0x27DA, r18
    13aa:	30 93 db 27 	sts	0x27DB, r19
    13ae:	20 91 48 06 	lds	r18, 0x0648
    13b2:	20 ff       	sbrs	r18, 0
    13b4:	0c c0       	rjmp	.+24     	; 0x13ce <main+0xcc>
    13b6:	e0 91 da 27 	lds	r30, 0x27DA
    13ba:	f0 91 db 27 	lds	r31, 0x27DB
    13be:	ee 0f       	add	r30, r30
    13c0:	ff 1f       	adc	r31, r31
    13c2:	e6 5f       	subi	r30, 0xF6	; 246
    13c4:	ff 4d       	sbci	r31, 0xDF	; 223
    13c6:	20 81       	ld	r18, Z
    13c8:	31 81       	ldd	r19, Z+1	; 0x01
    13ca:	82 0f       	add	r24, r18
    13cc:	93 1f       	adc	r25, r19
    13ce:	0e 94 db 08 	call	0x11b6	; 0x11b6 <dac_write.part.0>
    13d2:	80 91 04 20 	lds	r24, 0x2004
    13d6:	90 91 05 20 	lds	r25, 0x2005
    13da:	01 96       	adiw	r24, 0x01	; 1
    13dc:	80 93 04 20 	sts	0x2004, r24
    13e0:	90 93 05 20 	sts	0x2005, r25
    13e4:	88 3e       	cpi	r24, 0xE8	; 232
    13e6:	93 40       	sbci	r25, 0x03	; 3
    13e8:	08 f4       	brcc	.+2      	; 0x13ec <main+0xea>
    13ea:	95 cf       	rjmp	.-214    	; 0x1316 <main+0x14>
    13ec:	10 92 04 20 	sts	0x2004, r1
    13f0:	10 92 05 20 	sts	0x2005, r1
    13f4:	90 cf       	rjmp	.-224    	; 0x1316 <main+0x14>

000013f6 <_exit>:
    13f6:	f8 94       	cli

000013f8 <__stop_program>:
    13f8:	ff cf       	rjmp	.-2      	; 0x13f8 <__stop_program>
